
_printf:

;Detector_nivel.c,3 :: 		void printf(unsigned char msg[])
;Detector_nivel.c,5 :: 		UART1_Write_Text(msg);
	MOVF        FARG_printf_msg+0, 0 
	MOVWF       FARG_UART1_Write_Text_uart_text+0 
	MOVF        FARG_printf_msg+1, 0 
	MOVWF       FARG_UART1_Write_Text_uart_text+1 
	CALL        _UART1_Write_Text+0, 0
;Detector_nivel.c,6 :: 		}
L_end_printf:
	RETURN      0
; end of _printf

_main:

;Detector_nivel.c,8 :: 		int main(void)
;Detector_nivel.c,12 :: 		TRISD0_bit=0;
	BCF         TRISD0_bit+0, BitPos(TRISD0_bit+0) 
;Detector_nivel.c,13 :: 		TRISD2_bit=0;
	BCF         TRISD2_bit+0, BitPos(TRISD2_bit+0) 
;Detector_nivel.c,14 :: 		RD0_bit=0;   // iniciamos en cero el pin donde se encuentra conectada la alarma
	BCF         RD0_bit+0, BitPos(RD0_bit+0) 
;Detector_nivel.c,15 :: 		RD2_bit=0;   // iniciamos en cero el pin que controla el encendido y apagado del led guia que nos ayuda a visualizar
	BCF         RD2_bit+0, BitPos(RD2_bit+0) 
;Detector_nivel.c,17 :: 		TRISC=0;
	CLRF        TRISC+0 
;Detector_nivel.c,18 :: 		UART1_Init(9600);        // inicializamos el puerto serial a 9600
	BSF         BAUDCON+0, 3, 0
	MOVLW       4
	MOVWF       SPBRGH+0 
	MOVLW       225
	MOVWF       SPBRG+0 
	BSF         TXSTA+0, 2, 0
	CALL        _UART1_Init+0, 0
;Detector_nivel.c,19 :: 		printf("AT+CMGF=1\n\r"); //Habilitamos el modo texto de los sms del modulo sim800 para que no envie los mensajes en hexadecimal
	MOVLW       65
	MOVWF       ?lstr1_Detector_nivel+0 
	MOVLW       84
	MOVWF       ?lstr1_Detector_nivel+1 
	MOVLW       43
	MOVWF       ?lstr1_Detector_nivel+2 
	MOVLW       67
	MOVWF       ?lstr1_Detector_nivel+3 
	MOVLW       77
	MOVWF       ?lstr1_Detector_nivel+4 
	MOVLW       71
	MOVWF       ?lstr1_Detector_nivel+5 
	MOVLW       70
	MOVWF       ?lstr1_Detector_nivel+6 
	MOVLW       61
	MOVWF       ?lstr1_Detector_nivel+7 
	MOVLW       49
	MOVWF       ?lstr1_Detector_nivel+8 
	MOVLW       10
	MOVWF       ?lstr1_Detector_nivel+9 
	MOVLW       13
	MOVWF       ?lstr1_Detector_nivel+10 
	CLRF        ?lstr1_Detector_nivel+11 
	MOVLW       ?lstr1_Detector_nivel+0
	MOVWF       FARG_printf_msg+0 
	MOVLW       hi_addr(?lstr1_Detector_nivel+0)
	MOVWF       FARG_printf_msg+1 
	CALL        _printf+0, 0
;Detector_nivel.c,21 :: 		while(1)
L_main0:
;Detector_nivel.c,24 :: 		if(RB5_bit==1 && RB6_bit==0 && RB7_bit==0)
	BTFSS       RB5_bit+0, BitPos(RB5_bit+0) 
	GOTO        L_main4
	BTFSC       RB6_bit+0, BitPos(RB6_bit+0) 
	GOTO        L_main4
	BTFSC       RB7_bit+0, BitPos(RB7_bit+0) 
	GOTO        L_main4
L__main29:
;Detector_nivel.c,26 :: 		RD2_bit=1;  //encendemos el led guia
	BSF         RD2_bit+0, BitPos(RD2_bit+0) 
;Detector_nivel.c,27 :: 		printf("AT+CMGF=1\n\r");
	MOVLW       65
	MOVWF       ?lstr2_Detector_nivel+0 
	MOVLW       84
	MOVWF       ?lstr2_Detector_nivel+1 
	MOVLW       43
	MOVWF       ?lstr2_Detector_nivel+2 
	MOVLW       67
	MOVWF       ?lstr2_Detector_nivel+3 
	MOVLW       77
	MOVWF       ?lstr2_Detector_nivel+4 
	MOVLW       71
	MOVWF       ?lstr2_Detector_nivel+5 
	MOVLW       70
	MOVWF       ?lstr2_Detector_nivel+6 
	MOVLW       61
	MOVWF       ?lstr2_Detector_nivel+7 
	MOVLW       49
	MOVWF       ?lstr2_Detector_nivel+8 
	MOVLW       10
	MOVWF       ?lstr2_Detector_nivel+9 
	MOVLW       13
	MOVWF       ?lstr2_Detector_nivel+10 
	CLRF        ?lstr2_Detector_nivel+11 
	MOVLW       ?lstr2_Detector_nivel+0
	MOVWF       FARG_printf_msg+0 
	MOVLW       hi_addr(?lstr2_Detector_nivel+0)
	MOVWF       FARG_printf_msg+1 
	CALL        _printf+0, 0
;Detector_nivel.c,28 :: 		Delay_ms(500);
	MOVLW       31
	MOVWF       R11, 0
	MOVLW       113
	MOVWF       R12, 0
	MOVLW       30
	MOVWF       R13, 0
L_main5:
	DECFSZ      R13, 1, 1
	BRA         L_main5
	DECFSZ      R12, 1, 1
	BRA         L_main5
	DECFSZ      R11, 1, 1
	BRA         L_main5
	NOP
;Detector_nivel.c,29 :: 		printf("AT+CMGS=\"+573017759550\"\n\r");//Num de celular a quien le envío el sms
	MOVLW       ?ICS?lstr3_Detector_nivel+0
	MOVWF       TBLPTRL+0 
	MOVLW       hi_addr(?ICS?lstr3_Detector_nivel+0)
	MOVWF       TBLPTRL+1 
	MOVLW       higher_addr(?ICS?lstr3_Detector_nivel+0)
	MOVWF       TBLPTRL+2 
	MOVLW       ?lstr3_Detector_nivel+0
	MOVWF       FSR1L+0 
	MOVLW       hi_addr(?lstr3_Detector_nivel+0)
	MOVWF       FSR1L+1 
	MOVLW       26
	MOVWF       R0 
	MOVLW       1
	MOVWF       R1 
	CALL        ___CC2DW+0, 0
	MOVLW       ?lstr3_Detector_nivel+0
	MOVWF       FARG_printf_msg+0 
	MOVLW       hi_addr(?lstr3_Detector_nivel+0)
	MOVWF       FARG_printf_msg+1 
	CALL        _printf+0, 0
;Detector_nivel.c,30 :: 		Delay_ms(500);
	MOVLW       31
	MOVWF       R11, 0
	MOVLW       113
	MOVWF       R12, 0
	MOVLW       30
	MOVWF       R13, 0
L_main6:
	DECFSZ      R13, 1, 1
	BRA         L_main6
	DECFSZ      R12, 1, 1
	BRA         L_main6
	DECFSZ      R11, 1, 1
	BRA         L_main6
	NOP
;Detector_nivel.c,31 :: 		printf("Nivel del rio: 1 metro\n\r");//mensaje que se desea enviar enviado
	MOVLW       ?ICS?lstr4_Detector_nivel+0
	MOVWF       TBLPTRL+0 
	MOVLW       hi_addr(?ICS?lstr4_Detector_nivel+0)
	MOVWF       TBLPTRL+1 
	MOVLW       higher_addr(?ICS?lstr4_Detector_nivel+0)
	MOVWF       TBLPTRL+2 
	MOVLW       ?lstr4_Detector_nivel+0
	MOVWF       FSR1L+0 
	MOVLW       hi_addr(?lstr4_Detector_nivel+0)
	MOVWF       FSR1L+1 
	MOVLW       25
	MOVWF       R0 
	MOVLW       1
	MOVWF       R1 
	CALL        ___CC2DW+0, 0
	MOVLW       ?lstr4_Detector_nivel+0
	MOVWF       FARG_printf_msg+0 
	MOVLW       hi_addr(?lstr4_Detector_nivel+0)
	MOVWF       FARG_printf_msg+1 
	CALL        _printf+0, 0
;Detector_nivel.c,32 :: 		UART_Write(26);
	MOVLW       26
	MOVWF       FARG_UART_Write__data+0 
	CALL        _UART_Write+0, 0
;Detector_nivel.c,33 :: 		Delay_ms(1000);
	MOVLW       61
	MOVWF       R11, 0
	MOVLW       225
	MOVWF       R12, 0
	MOVLW       63
	MOVWF       R13, 0
L_main7:
	DECFSZ      R13, 1, 1
	BRA         L_main7
	DECFSZ      R12, 1, 1
	BRA         L_main7
	DECFSZ      R11, 1, 1
	BRA         L_main7
	NOP
	NOP
;Detector_nivel.c,34 :: 		RD2_bit=0;;  //apagamos el led guia
	BCF         RD2_bit+0, BitPos(RD2_bit+0) 
;Detector_nivel.c,35 :: 		}
L_main4:
;Detector_nivel.c,37 :: 		if(RB5_bit==1 && RB6_bit==1 && RB7_bit==0)
	BTFSS       RB5_bit+0, BitPos(RB5_bit+0) 
	GOTO        L_main10
	BTFSS       RB6_bit+0, BitPos(RB6_bit+0) 
	GOTO        L_main10
	BTFSC       RB7_bit+0, BitPos(RB7_bit+0) 
	GOTO        L_main10
L__main28:
;Detector_nivel.c,39 :: 		RD2_bit=1;  //encendemos el led guia
	BSF         RD2_bit+0, BitPos(RD2_bit+0) 
;Detector_nivel.c,40 :: 		Delay_ms(500);
	MOVLW       31
	MOVWF       R11, 0
	MOVLW       113
	MOVWF       R12, 0
	MOVLW       30
	MOVWF       R13, 0
L_main11:
	DECFSZ      R13, 1, 1
	BRA         L_main11
	DECFSZ      R12, 1, 1
	BRA         L_main11
	DECFSZ      R11, 1, 1
	BRA         L_main11
	NOP
;Detector_nivel.c,41 :: 		printf("AT+CMGS=\"+573017759550\"\n\r");//Num de celular a quien le envío el sms
	MOVLW       ?ICS?lstr5_Detector_nivel+0
	MOVWF       TBLPTRL+0 
	MOVLW       hi_addr(?ICS?lstr5_Detector_nivel+0)
	MOVWF       TBLPTRL+1 
	MOVLW       higher_addr(?ICS?lstr5_Detector_nivel+0)
	MOVWF       TBLPTRL+2 
	MOVLW       ?lstr5_Detector_nivel+0
	MOVWF       FSR1L+0 
	MOVLW       hi_addr(?lstr5_Detector_nivel+0)
	MOVWF       FSR1L+1 
	MOVLW       26
	MOVWF       R0 
	MOVLW       1
	MOVWF       R1 
	CALL        ___CC2DW+0, 0
	MOVLW       ?lstr5_Detector_nivel+0
	MOVWF       FARG_printf_msg+0 
	MOVLW       hi_addr(?lstr5_Detector_nivel+0)
	MOVWF       FARG_printf_msg+1 
	CALL        _printf+0, 0
;Detector_nivel.c,42 :: 		Delay_ms(500);
	MOVLW       31
	MOVWF       R11, 0
	MOVLW       113
	MOVWF       R12, 0
	MOVLW       30
	MOVWF       R13, 0
L_main12:
	DECFSZ      R13, 1, 1
	BRA         L_main12
	DECFSZ      R12, 1, 1
	BRA         L_main12
	DECFSZ      R11, 1, 1
	BRA         L_main12
	NOP
;Detector_nivel.c,43 :: 		printf("Nivel del rio: 2 metros\n\r");//mensaje que se desea enviar enviado
	MOVLW       ?ICS?lstr6_Detector_nivel+0
	MOVWF       TBLPTRL+0 
	MOVLW       hi_addr(?ICS?lstr6_Detector_nivel+0)
	MOVWF       TBLPTRL+1 
	MOVLW       higher_addr(?ICS?lstr6_Detector_nivel+0)
	MOVWF       TBLPTRL+2 
	MOVLW       ?lstr6_Detector_nivel+0
	MOVWF       FSR1L+0 
	MOVLW       hi_addr(?lstr6_Detector_nivel+0)
	MOVWF       FSR1L+1 
	MOVLW       26
	MOVWF       R0 
	MOVLW       1
	MOVWF       R1 
	CALL        ___CC2DW+0, 0
	MOVLW       ?lstr6_Detector_nivel+0
	MOVWF       FARG_printf_msg+0 
	MOVLW       hi_addr(?lstr6_Detector_nivel+0)
	MOVWF       FARG_printf_msg+1 
	CALL        _printf+0, 0
;Detector_nivel.c,44 :: 		UART_Write(26);
	MOVLW       26
	MOVWF       FARG_UART_Write__data+0 
	CALL        _UART_Write+0, 0
;Detector_nivel.c,45 :: 		Delay_ms(1000);
	MOVLW       61
	MOVWF       R11, 0
	MOVLW       225
	MOVWF       R12, 0
	MOVLW       63
	MOVWF       R13, 0
L_main13:
	DECFSZ      R13, 1, 1
	BRA         L_main13
	DECFSZ      R12, 1, 1
	BRA         L_main13
	DECFSZ      R11, 1, 1
	BRA         L_main13
	NOP
	NOP
;Detector_nivel.c,46 :: 		RD2_bit=0;  //apagamos el led guia
	BCF         RD2_bit+0, BitPos(RD2_bit+0) 
;Detector_nivel.c,47 :: 		}
L_main10:
;Detector_nivel.c,49 :: 		if(RB5_bit==1 && RB6_bit==1 && RB7_bit==1)
	BTFSS       RB5_bit+0, BitPos(RB5_bit+0) 
	GOTO        L_main16
	BTFSS       RB6_bit+0, BitPos(RB6_bit+0) 
	GOTO        L_main16
	BTFSS       RB7_bit+0, BitPos(RB7_bit+0) 
	GOTO        L_main16
L__main27:
;Detector_nivel.c,51 :: 		RD2_bit=1;  //encendemos el led guia
	BSF         RD2_bit+0, BitPos(RD2_bit+0) 
;Detector_nivel.c,52 :: 		Delay_ms(500);
	MOVLW       31
	MOVWF       R11, 0
	MOVLW       113
	MOVWF       R12, 0
	MOVLW       30
	MOVWF       R13, 0
L_main17:
	DECFSZ      R13, 1, 1
	BRA         L_main17
	DECFSZ      R12, 1, 1
	BRA         L_main17
	DECFSZ      R11, 1, 1
	BRA         L_main17
	NOP
;Detector_nivel.c,53 :: 		printf("AT+CMGS=\"+573017759550\"\n\r");//Num de celular a quien le envío el sms
	MOVLW       ?ICS?lstr7_Detector_nivel+0
	MOVWF       TBLPTRL+0 
	MOVLW       hi_addr(?ICS?lstr7_Detector_nivel+0)
	MOVWF       TBLPTRL+1 
	MOVLW       higher_addr(?ICS?lstr7_Detector_nivel+0)
	MOVWF       TBLPTRL+2 
	MOVLW       ?lstr7_Detector_nivel+0
	MOVWF       FSR1L+0 
	MOVLW       hi_addr(?lstr7_Detector_nivel+0)
	MOVWF       FSR1L+1 
	MOVLW       26
	MOVWF       R0 
	MOVLW       1
	MOVWF       R1 
	CALL        ___CC2DW+0, 0
	MOVLW       ?lstr7_Detector_nivel+0
	MOVWF       FARG_printf_msg+0 
	MOVLW       hi_addr(?lstr7_Detector_nivel+0)
	MOVWF       FARG_printf_msg+1 
	CALL        _printf+0, 0
;Detector_nivel.c,54 :: 		Delay_ms(500);
	MOVLW       31
	MOVWF       R11, 0
	MOVLW       113
	MOVWF       R12, 0
	MOVLW       30
	MOVWF       R13, 0
L_main18:
	DECFSZ      R13, 1, 1
	BRA         L_main18
	DECFSZ      R12, 1, 1
	BRA         L_main18
	DECFSZ      R11, 1, 1
	BRA         L_main18
	NOP
;Detector_nivel.c,55 :: 		printf("Nivel del rio: 3 metros\n\r");//mensaje que se desea enviar enviado
	MOVLW       ?ICS?lstr8_Detector_nivel+0
	MOVWF       TBLPTRL+0 
	MOVLW       hi_addr(?ICS?lstr8_Detector_nivel+0)
	MOVWF       TBLPTRL+1 
	MOVLW       higher_addr(?ICS?lstr8_Detector_nivel+0)
	MOVWF       TBLPTRL+2 
	MOVLW       ?lstr8_Detector_nivel+0
	MOVWF       FSR1L+0 
	MOVLW       hi_addr(?lstr8_Detector_nivel+0)
	MOVWF       FSR1L+1 
	MOVLW       26
	MOVWF       R0 
	MOVLW       1
	MOVWF       R1 
	CALL        ___CC2DW+0, 0
	MOVLW       ?lstr8_Detector_nivel+0
	MOVWF       FARG_printf_msg+0 
	MOVLW       hi_addr(?lstr8_Detector_nivel+0)
	MOVWF       FARG_printf_msg+1 
	CALL        _printf+0, 0
;Detector_nivel.c,56 :: 		UART_Write(26);
	MOVLW       26
	MOVWF       FARG_UART_Write__data+0 
	CALL        _UART_Write+0, 0
;Detector_nivel.c,57 :: 		RD2_bit=0;  //apagamos el led guia
	BCF         RD2_bit+0, BitPos(RD2_bit+0) 
;Detector_nivel.c,58 :: 		sirena=1;           //asignamos 1 a la variable sirena
	MOVLW       1
	MOVWF       _sirena+0 
;Detector_nivel.c,59 :: 		Delay_ms(5000);
	MOVLW       2
	MOVWF       R10, 0
	MOVLW       49
	MOVWF       R11, 0
	MOVLW       98
	MOVWF       R12, 0
	MOVLW       69
	MOVWF       R13, 0
L_main19:
	DECFSZ      R13, 1, 1
	BRA         L_main19
	DECFSZ      R12, 1, 1
	BRA         L_main19
	DECFSZ      R11, 1, 1
	BRA         L_main19
	DECFSZ      R10, 1, 1
	BRA         L_main19
;Detector_nivel.c,60 :: 		}
L_main16:
;Detector_nivel.c,62 :: 		if (sirena==1)
	MOVF        _sirena+0, 0 
	XORLW       1
	BTFSS       STATUS+0, 2 
	GOTO        L_main20
;Detector_nivel.c,65 :: 		ctrl=0;
	CLRF        _ctrl+0 
;Detector_nivel.c,66 :: 		while (ctrl<=20)
L_main21:
	MOVF        _ctrl+0, 0 
	SUBLW       20
	BTFSS       STATUS+0, 0 
	GOTO        L_main22
;Detector_nivel.c,68 :: 		RD0_bit=~RD0_bit;
	BTG         RD0_bit+0, BitPos(RD0_bit+0) 
;Detector_nivel.c,69 :: 		Delay_ms(250);
	MOVLW       16
	MOVWF       R11, 0
	MOVLW       57
	MOVWF       R12, 0
	MOVLW       13
	MOVWF       R13, 0
L_main23:
	DECFSZ      R13, 1, 1
	BRA         L_main23
	DECFSZ      R12, 1, 1
	BRA         L_main23
	DECFSZ      R11, 1, 1
	BRA         L_main23
	NOP
	NOP
;Detector_nivel.c,70 :: 		ctrl++;
	INCF        _ctrl+0, 1 
;Detector_nivel.c,71 :: 		}
	GOTO        L_main21
L_main22:
;Detector_nivel.c,72 :: 		RD0_bit=0;
	BCF         RD0_bit+0, BitPos(RD0_bit+0) 
;Detector_nivel.c,73 :: 		sirena=0;
	CLRF        _sirena+0 
;Detector_nivel.c,74 :: 		printf("AT+CMGS=\"3017759550\"\n\r");//Num de celular a quien le envío el sms
	MOVLW       ?ICS?lstr9_Detector_nivel+0
	MOVWF       TBLPTRL+0 
	MOVLW       hi_addr(?ICS?lstr9_Detector_nivel+0)
	MOVWF       TBLPTRL+1 
	MOVLW       higher_addr(?ICS?lstr9_Detector_nivel+0)
	MOVWF       TBLPTRL+2 
	MOVLW       ?lstr9_Detector_nivel+0
	MOVWF       FSR1L+0 
	MOVLW       hi_addr(?lstr9_Detector_nivel+0)
	MOVWF       FSR1L+1 
	MOVLW       23
	MOVWF       R0 
	MOVLW       1
	MOVWF       R1 
	CALL        ___CC2DW+0, 0
	MOVLW       ?lstr9_Detector_nivel+0
	MOVWF       FARG_printf_msg+0 
	MOVLW       hi_addr(?lstr9_Detector_nivel+0)
	MOVWF       FARG_printf_msg+1 
	CALL        _printf+0, 0
;Detector_nivel.c,75 :: 		Delay_ms(500);
	MOVLW       31
	MOVWF       R11, 0
	MOVLW       113
	MOVWF       R12, 0
	MOVLW       30
	MOVWF       R13, 0
L_main24:
	DECFSZ      R13, 1, 1
	BRA         L_main24
	DECFSZ      R12, 1, 1
	BRA         L_main24
	DECFSZ      R11, 1, 1
	BRA         L_main24
	NOP
;Detector_nivel.c,76 :: 		printf("Ya la sirena esta apagada\n\r");//mensaje que se desea enviar enviado
	MOVLW       ?ICS?lstr10_Detector_nivel+0
	MOVWF       TBLPTRL+0 
	MOVLW       hi_addr(?ICS?lstr10_Detector_nivel+0)
	MOVWF       TBLPTRL+1 
	MOVLW       higher_addr(?ICS?lstr10_Detector_nivel+0)
	MOVWF       TBLPTRL+2 
	MOVLW       ?lstr10_Detector_nivel+0
	MOVWF       FSR1L+0 
	MOVLW       hi_addr(?lstr10_Detector_nivel+0)
	MOVWF       FSR1L+1 
	MOVLW       28
	MOVWF       R0 
	MOVLW       1
	MOVWF       R1 
	CALL        ___CC2DW+0, 0
	MOVLW       ?lstr10_Detector_nivel+0
	MOVWF       FARG_printf_msg+0 
	MOVLW       hi_addr(?lstr10_Detector_nivel+0)
	MOVWF       FARG_printf_msg+1 
	CALL        _printf+0, 0
;Detector_nivel.c,77 :: 		UART_Write(26);
	MOVLW       26
	MOVWF       FARG_UART_Write__data+0 
	CALL        _UART_Write+0, 0
;Detector_nivel.c,78 :: 		Delay_ms(1000);
	MOVLW       61
	MOVWF       R11, 0
	MOVLW       225
	MOVWF       R12, 0
	MOVLW       63
	MOVWF       R13, 0
L_main25:
	DECFSZ      R13, 1, 1
	BRA         L_main25
	DECFSZ      R12, 1, 1
	BRA         L_main25
	DECFSZ      R11, 1, 1
	BRA         L_main25
	NOP
	NOP
;Detector_nivel.c,79 :: 		}
L_main20:
;Detector_nivel.c,80 :: 		Delay_ms(1000);
	MOVLW       61
	MOVWF       R11, 0
	MOVLW       225
	MOVWF       R12, 0
	MOVLW       63
	MOVWF       R13, 0
L_main26:
	DECFSZ      R13, 1, 1
	BRA         L_main26
	DECFSZ      R12, 1, 1
	BRA         L_main26
	DECFSZ      R11, 1, 1
	BRA         L_main26
	NOP
	NOP
;Detector_nivel.c,81 :: 		}
	GOTO        L_main0
;Detector_nivel.c,85 :: 		}
L_end_main:
	GOTO        $+0
; end of _main
